target datalayout = "e-m:e-p270:32:32-p271:32:32-p272:64:64-i64:64-i128:128-f80:128-n8:16:32:64-S128"
target triple = "x86_64-pc-linux-gnu"

%struct.builtin_types_dissection_data_t = type { %struct.builtin_types_type_mappings, %struct.builtin_types_dissection_infos }
%struct.builtin_types_type_mappings = type { %struct._type_mapping }
%struct._type_mapping = type { %struct._endpoint_guid, [256 x i8], [256 x i8], i32, %struct._datawriter_qos, i32, i64 }
%struct._endpoint_guid = type { i32, i32, i32, i32, i32 }
%struct._datawriter_qos = type { i32, i32, i32 }
%struct.builtin_types_dissection_infos = type { %struct._dissection_info, %struct._dissection_info, %struct._dissection_info, %struct._dissection_info, %struct._dissection_info, %struct._dissection_info, %struct._dissection_info, %struct._dissection_info, %struct._dissection_info, %struct._dissection_info, %struct._dissection_info, %struct._dissection_info, %struct._dissection_info }
%struct._dissection_info = type { i64, i32, i64, i32, [256 x i8], i32, i32, i32, ptr }
%struct._submessage_col_info = type { ptr, ptr, ptr }
%struct._packet_info = type { ptr, ptr, i32, i32, %struct.nstime_t, %struct.nstime_t, %struct.nstime_t, i8, ptr, ptr, ptr, ptr, %struct._address, %struct._address, %struct._address, %struct._address, %struct._address, %struct._address, i32, ptr, i8, [3 x i8], %struct.anon, i32, i32, i32, i32, ptr, i8, ptr, ptr, i16, i16, i32, i32, i16, i32, i32, ptr, ptr, ptr, i8, i8, i16, i16, i16, i32, i16, i16, ptr, ptr, ptr, ptr, ptr, i32, i32 }
%struct.nstime_t = type { i64, i32 }
%struct._address = type { i32, i32, ptr, ptr }
%struct.anon = type { i8, [3 x i8] }
%struct._proto_node = type { ptr, ptr, ptr, ptr, ptr, ptr, ptr }
%struct.field_info = type { ptr, i32, i32, i32, i32, i32, i32, ptr, ptr, ptr, i32, i32 }

@proto_rtps = internal global i32 0, align 4
@hf_rtps_param_topic_name = internal global i32 0, align 4
@hf_rtps_param_type_name = internal global i32 0, align 4
@hf_rtps_dcps_publication_data_frame_number = internal global i32 0, align 4
@ett_rtps_topic_info = internal global i32 0, align 4
@enable_topic_info = internal global i8 1, align 1
@registry = internal global ptr null, align 8
@builtin_types_dissection_data = internal global %struct.builtin_types_dissection_data_t zeroinitializer, align 8
@.str.1280 = private unnamed_addr constant [37 x i8] c"[Topic Information (from Discovery)]\00", align 1
@.str.1281 = private unnamed_addr constant [35 x i8] c"[Topic Information (BuiltIn type)]\00", align 1

; Function Attrs: inlinehint nounwind null_pointer_is_valid sspstrong uwtable
define internal void @proto_item_set_generated(ptr noundef %0) #10 {
  %2 = alloca ptr, align 8
  store ptr %0, ptr %2, align 8
  %3 = load ptr, ptr %2, align 8
  %4 = icmp ne ptr %3, null
  br i1 %4, label %5, label %24

5:                                                ; preds = %1
  br label %6

6:                                                ; preds = %5
  %7 = load ptr, ptr %2, align 8
  %8 = getelementptr inbounds nuw %struct._proto_node, ptr %7, i32 0, i32 5
  %9 = load ptr, ptr %8, align 8
  %10 = icmp ne ptr %9, null
  br i1 %10, label %11, label %22

11:                                               ; preds = %6
  %12 = load ptr, ptr %2, align 8
  %13 = getelementptr inbounds nuw %struct._proto_node, ptr %12, i32 0, i32 5
  %14 = load ptr, ptr %13, align 8
  %15 = getelementptr inbounds nuw %struct.field_info, ptr %14, i32 0, i32 6
  %16 = load i32, ptr %15, align 4
  %17 = or i32 %16, 2
  %18 = load ptr, ptr %2, align 8
  %19 = getelementptr inbounds nuw %struct._proto_node, ptr %18, i32 0, i32 5
  %20 = load ptr, ptr %19, align 8
  %21 = getelementptr inbounds nuw %struct.field_info, ptr %20, i32 0, i32 6
  store i32 %17, ptr %21, align 4
  br label %22

22:                                               ; preds = %11, %6
  br label %23

23:                                               ; preds = %22
  br label %24

24:                                               ; preds = %23, %1
  ret void
}

; Function Attrs: null_pointer_is_valid sspstrong uwtable
define internal ptr @rtps_util_get_topic_info(ptr noundef %0) #0 {
  %2 = alloca ptr, align 8
  %3 = alloca ptr, align 8
  %4 = alloca i32, align 4
  store ptr %0, ptr %2, align 8
  call void @llvm.lifetime.start.p0(i64 8, ptr %3) #14
  store ptr null, ptr %3, align 8
  %5 = load ptr, ptr %2, align 8
  %6 = icmp ne ptr %5, null
  br i1 %6, label %7, label %29

7:                                                ; preds = %1
  call void @llvm.lifetime.start.p0(i64 4, ptr %4) #14
  %8 = load ptr, ptr %2, align 8
  %9 = getelementptr inbounds nuw %struct._endpoint_guid, ptr %8, i32 0, i32 4
  %10 = load i32, ptr %9, align 4
  %11 = and i32 255, %10
  store i32 %11, ptr %4, align 4
  %12 = load i32, ptr %4, align 4
  %13 = icmp eq i32 %12, 141
  br i1 %13, label %17, label %14

14:                                               ; preds = %7
  %15 = load i32, ptr %4, align 4
  %16 = icmp eq i32 %15, 140
  br i1 %16, label %17, label %18

17:                                               ; preds = %14, %7
  store ptr @builtin_types_dissection_data, ptr %3, align 8
  br label %28

18:                                               ; preds = %14
  %19 = load ptr, ptr %2, align 8
  %20 = getelementptr inbounds nuw %struct._endpoint_guid, ptr %19, i32 0, i32 0
  %21 = load i32, ptr %20, align 4
  %22 = icmp eq i32 %21, 15
  br i1 %22, label %23, label %27

23:                                               ; preds = %18
  %24 = load ptr, ptr @registry, align 8
  %25 = load ptr, ptr %2, align 8
  %26 = call ptr @wmem_map_lookup(ptr noundef %24, ptr noundef %25)
  store ptr %26, ptr %3, align 8
  br label %27

27:                                               ; preds = %23, %18
  br label %28

28:                                               ; preds = %27, %17
  call void @llvm.lifetime.end.p0(i64 4, ptr %4) #14
  br label %29

29:                                               ; preds = %28, %1
  %30 = load ptr, ptr %3, align 8
  call void @llvm.lifetime.end.p0(i64 8, ptr %3) #14
  ret ptr %30
}

; Function Attrs: null_pointer_is_valid sspstrong uwtable
define internal ptr @rtps_util_add_topic_info(ptr noundef %0, ptr noundef %1, ptr noundef %2, i32 noundef %3, ptr noundef %4) #0 {
  %6 = alloca ptr, align 8
  %7 = alloca ptr, align 8
  %8 = alloca ptr, align 8
  %9 = alloca i32, align 4
  %10 = alloca ptr, align 8
  %11 = alloca ptr, align 8
  %12 = alloca ptr, align 8
  %13 = alloca ptr, align 8
  %14 = alloca i8, align 1
  %15 = alloca ptr, align 8
  %16 = alloca ptr, align 8
  %17 = alloca ptr, align 8
  store ptr %0, ptr %6, align 8
  store ptr %1, ptr %7, align 8
  store ptr %2, ptr %8, align 8
  store i32 %3, ptr %9, align 4
  store ptr %4, ptr %10, align 8
  call void @llvm.lifetime.start.p0(i64 8, ptr %11) #14
  store ptr null, ptr %11, align 8
  %18 = load i8, ptr @enable_topic_info, align 1, !range !6, !noundef !7
  %19 = trunc i8 %18 to i1
  br i1 %19, label %20, label %97

20:                                               ; preds = %5
  call void @llvm.lifetime.start.p0(i64 8, ptr %12) #14
  call void @llvm.lifetime.start.p0(i64 8, ptr %13) #14
  call void @llvm.lifetime.start.p0(i64 1, ptr %14) #14
  store i8 0, ptr %14, align 1
  call void @llvm.lifetime.start.p0(i64 8, ptr %15) #14
  %21 = load ptr, ptr %10, align 8
  %22 = call ptr @rtps_util_get_topic_info(ptr noundef %21)
  store ptr %22, ptr %15, align 8
  %23 = load ptr, ptr %15, align 8
  %24 = icmp eq ptr %23, @builtin_types_dissection_data
  %25 = zext i1 %24 to i8
  store i8 %25, ptr %14, align 1
  %26 = load ptr, ptr %15, align 8
  %27 = icmp ne ptr %26, null
  br i1 %27, label %28, label %96

28:                                               ; preds = %20
  call void @llvm.lifetime.start.p0(i64 8, ptr %16) #14
  %29 = load i8, ptr %14, align 1, !range !6, !noundef !7
  %30 = trunc i8 %29 to i1
  %31 = xor i1 %30, true
  %32 = select i1 %31, ptr @.str.1280, ptr @.str.1281
  store ptr %32, ptr %16, align 8
  %33 = load ptr, ptr %15, align 8
  %34 = getelementptr inbounds nuw %struct._type_mapping, ptr %33, i32 0, i32 2
  %35 = getelementptr inbounds [256 x i8], ptr %34, i64 0, i64 0
  store ptr %35, ptr %11, align 8
  %36 = load ptr, ptr %11, align 8
  %37 = icmp ne ptr %36, null
  br i1 %37, label %38, label %95

38:                                               ; preds = %28
  call void @llvm.lifetime.start.p0(i64 8, ptr %17) #14
  store ptr null, ptr %17, align 8
  %39 = load ptr, ptr %6, align 8
  %40 = load ptr, ptr %8, align 8
  %41 = load i32, ptr %9, align 4
  %42 = load i32, ptr @ett_rtps_topic_info, align 4
  %43 = load ptr, ptr %16, align 8
  %44 = call ptr @proto_tree_add_subtree(ptr noundef %39, ptr noundef %40, i32 noundef %41, i32 noundef 0, i32 noundef %42, ptr noundef null, ptr noundef %43)
  store ptr %44, ptr %12, align 8
  %45 = load ptr, ptr %12, align 8
  %46 = load i32, ptr @hf_rtps_param_type_name, align 4
  %47 = load ptr, ptr %8, align 8
  %48 = load i32, ptr %9, align 4
  %49 = load ptr, ptr %15, align 8
  %50 = getelementptr inbounds nuw %struct._type_mapping, ptr %49, i32 0, i32 1
  %51 = getelementptr inbounds [256 x i8], ptr %50, i64 0, i64 0
  %52 = call ptr @proto_tree_add_string(ptr noundef %45, i32 noundef %46, ptr noundef %47, i32 noundef %48, i32 noundef 0, ptr noundef %51)
  store ptr %52, ptr %13, align 8
  %53 = load ptr, ptr %13, align 8
  call void @proto_item_set_generated(ptr noundef %53)
  %54 = load i8, ptr %14, align 1, !range !6, !noundef !7
  %55 = trunc i8 %54 to i1
  br i1 %55, label %71, label %56

56:                                               ; preds = %38
  %57 = load ptr, ptr %12, align 8
  %58 = load i32, ptr @hf_rtps_param_topic_name, align 4
  %59 = load ptr, ptr %8, align 8
  %60 = load i32, ptr %9, align 4
  %61 = load ptr, ptr %11, align 8
  %62 = call ptr @proto_tree_add_string(ptr noundef %57, i32 noundef %58, ptr noundef %59, i32 noundef %60, i32 noundef 0, ptr noundef %61)
  store ptr %62, ptr %13, align 8
  %63 = load ptr, ptr %13, align 8
  call void @proto_item_set_generated(ptr noundef %63)
  %64 = load ptr, ptr %12, align 8
  %65 = load i32, ptr @hf_rtps_dcps_publication_data_frame_number, align 4
  %66 = load ptr, ptr %8, align 8
  %67 = load ptr, ptr %15, align 8
  %68 = getelementptr inbounds nuw %struct._type_mapping, ptr %67, i32 0, i32 5
  %69 = load i32, ptr %68, align 4
  %70 = call ptr @proto_tree_add_uint(ptr noundef %64, i32 noundef %65, ptr noundef %66, i32 noundef 0, i32 noundef 0, i32 noundef %69)
  store ptr %70, ptr %13, align 8
  br label %71

71:                                               ; preds = %56, %38
  %72 = load ptr, ptr %13, align 8
  call void @proto_item_set_generated(ptr noundef %72)
  %73 = load ptr, ptr %7, align 8
  %74 = getelementptr inbounds nuw %struct._packet_info, ptr %73, i32 0, i32 51
  %75 = load ptr, ptr %74, align 8
  %76 = load ptr, ptr %7, align 8
  %77 = load i32, ptr @proto_rtps, align 4
  %78 = call ptr @p_get_proto_data(ptr noundef %75, ptr noundef %76, i32 noundef %77, i32 noundef 3)
  store ptr %78, ptr %17, align 8
  %79 = load ptr, ptr %17, align 8
  %80 = icmp ne ptr %79, null
  br i1 %80, label %81, label %94

81:                                               ; preds = %71
  %82 = load ptr, ptr %17, align 8
  %83 = getelementptr inbounds nuw %struct._submessage_col_info, ptr %82, i32 0, i32 1
  %84 = load ptr, ptr %83, align 8
  %85 = icmp eq ptr %84, null
  br i1 %85, label %86, label %94

86:                                               ; preds = %81
  %87 = load ptr, ptr %7, align 8
  %88 = getelementptr inbounds nuw %struct._packet_info, ptr %87, i32 0, i32 51
  %89 = load ptr, ptr %88, align 8
  %90 = load ptr, ptr %11, align 8
  %91 = call noalias ptr @wmem_strdup(ptr noundef %89, ptr noundef %90)
  %92 = load ptr, ptr %17, align 8
  %93 = getelementptr inbounds nuw %struct._submessage_col_info, ptr %92, i32 0, i32 1
  store ptr %91, ptr %93, align 8
  br label %94

94:                                               ; preds = %86, %81, %71
  call void @llvm.lifetime.end.p0(i64 8, ptr %17) #14
  br label %95

95:                                               ; preds = %94, %28
  call void @llvm.lifetime.end.p0(i64 8, ptr %16) #14
  br label %96

96:                                               ; preds = %95, %20
  call void @llvm.lifetime.end.p0(i64 8, ptr %15) #14
  call void @llvm.lifetime.end.p0(i64 1, ptr %14) #14
  call void @llvm.lifetime.end.p0(i64 8, ptr %13) #14
  call void @llvm.lifetime.end.p0(i64 8, ptr %12) #14
  br label %97

97:                                               ; preds = %96, %5
  %98 = load ptr, ptr %11, align 8
  call void @llvm.lifetime.end.p0(i64 8, ptr %11) #14
  ret ptr %98
}