; Function Attrs: null_pointer_is_valid sspstrong uwtable
define internal fastcc void @rtps_util_add_topic_info(ptr noundef %0, ptr noundef %1, ptr noundef %2, i32 noundef %3, ptr noundef %4) unnamed_addr #0 {
  %6 = load i8, ptr @enable_topic_info, align 1, !range !8, !noundef !9
  %7 = trunc nuw i8 %6 to i1
  %.not.i = icmp ne ptr %4, null
  %or.cond.not = and i1 %.not.i, %7
  br i1 %or.cond.not, label %8, label %rtps_util_get_topic_info.exit.thread

8:                                                ; preds = %5
  %9 = getelementptr inbounds nuw i8, ptr %4, i64 16
  %10 = load i32, ptr %9, align 4
  %11 = and i32 %10, 254
  %or.cond.i = icmp eq i32 %11, 140
  br i1 %or.cond.i, label %.thread, label %12

12:                                               ; preds = %8
  %13 = load i32, ptr %4, align 4
  %14 = icmp eq i32 %13, 15
  br i1 %14, label %rtps_util_get_topic_info.exit, label %rtps_util_get_topic_info.exit.thread

rtps_util_get_topic_info.exit:                    ; preds = %12
  %15 = load ptr, ptr @registry, align 8
  %16 = tail call ptr @wmem_map_lookup(ptr noundef %15, ptr noundef nonnull %4)
  %.fr = freeze ptr %16
  %.not = icmp eq ptr %.fr, null
  br i1 %.not, label %rtps_util_get_topic_info.exit.thread, label %17

17:                                               ; preds = %rtps_util_get_topic_info.exit
  %.not35 = icmp eq ptr %.fr, @builtin_types_dissection_data
  %18 = getelementptr inbounds nuw i8, ptr %.fr, i64 276
  %spec.select = select i1 %.not35, ptr @.str.1281, ptr @.str.1280
  br label %.thread

.thread:                                          ; preds = %17, %8
  %19 = phi ptr [ getelementptr inbounds nuw (i8, ptr @builtin_types_dissection_data, i64 276), %8 ], [ %18, %17 ]
  %.0.i5158 = phi ptr [ @builtin_types_dissection_data, %8 ], [ %.fr, %17 ]
  %.not355256 = phi i1 [ true, %8 ], [ %.not35, %17 ]
  %20 = phi ptr [ @.str.1281, %8 ], [ %spec.select, %17 ]
  %21 = load i32, ptr @ett_rtps_topic_info, align 4
  %22 = tail call ptr @proto_tree_add_subtree(ptr noundef %0, ptr noundef %2, i32 noundef %3, i32 noundef 0, i32 noundef %21, ptr noundef null, ptr noundef nonnull %20)
  %23 = load i32, ptr @hf_rtps_param_type_name, align 4
  %24 = getelementptr inbounds nuw i8, ptr %.0.i5158, i64 20
  %25 = tail call ptr @proto_tree_add_string(ptr noundef %22, i32 noundef %23, ptr noundef %2, i32 noundef %3, i32 noundef 0, ptr noundef nonnull %24)
  %.not.i37 = icmp eq ptr %25, null
  br i1 %.not.i37, label %proto_item_set_generated.exit, label %26

26:                                               ; preds = %.thread
  %27 = getelementptr inbounds nuw i8, ptr %25, i64 40
  %28 = load ptr, ptr %27, align 8
  %.not5.i = icmp eq ptr %28, null
  br i1 %.not5.i, label %proto_item_set_generated.exit, label %29

29:                                               ; preds = %26
  %30 = getelementptr inbounds nuw i8, ptr %28, i64 28
  %31 = load i32, ptr %30, align 4
  %32 = or i32 %31, 2
  store i32 %32, ptr %30, align 4
  br label %proto_item_set_generated.exit

proto_item_set_generated.exit:                    ; preds = %.thread, %26, %29
  br i1 %.not355256, label %47, label %33

33:                                               ; preds = %proto_item_set_generated.exit
  %34 = load i32, ptr @hf_rtps_param_topic_name, align 4
  %35 = tail call ptr @proto_tree_add_string(ptr noundef %22, i32 noundef %34, ptr noundef %2, i32 noundef %3, i32 noundef 0, ptr noundef nonnull %19)
  %.not.i38 = icmp eq ptr %35, null
  br i1 %.not.i38, label %proto_item_set_generated.exit40, label %36

36:                                               ; preds = %33
  %37 = getelementptr inbounds nuw i8, ptr %35, i64 40
  %38 = load ptr, ptr %37, align 8
  %.not5.i39 = icmp eq ptr %38, null
  br i1 %.not5.i39, label %proto_item_set_generated.exit40, label %39

39:                                               ; preds = %36
  %40 = getelementptr inbounds nuw i8, ptr %38, i64 28
  %41 = load i32, ptr %40, align 4
  %42 = or i32 %41, 2
  store i32 %42, ptr %40, align 4
  br label %proto_item_set_generated.exit40

proto_item_set_generated.exit40:                  ; preds = %33, %36, %39
  %43 = load i32, ptr @hf_rtps_dcps_publication_data_frame_number, align 4
  %44 = getelementptr inbounds nuw i8, ptr %.0.i5158, i64 548
  %45 = load i32, ptr %44, align 4
  %46 = tail call ptr @proto_tree_add_uint(ptr noundef %22, i32 noundef %43, ptr noundef %2, i32 noundef 0, i32 noundef 0, i32 noundef %45)
  br label %47

47:                                               ; preds = %proto_item_set_generated.exit40, %proto_item_set_generated.exit
  %.032 = phi ptr [ %25, %proto_item_set_generated.exit ], [ %46, %proto_item_set_generated.exit40 ]
  %.not.i41 = icmp eq ptr %.032, null
  br i1 %.not.i41, label %proto_item_set_generated.exit43, label %48

48:                                               ; preds = %47
  %49 = getelementptr inbounds nuw i8, ptr %.032, i64 40
  %50 = load ptr, ptr %49, align 8
  %.not5.i42 = icmp eq ptr %50, null
  br i1 %.not5.i42, label %proto_item_set_generated.exit43, label %51

51:                                               ; preds = %48
  %52 = getelementptr inbounds nuw i8, ptr %50, i64 28
  %53 = load i32, ptr %52, align 4
  %54 = or i32 %53, 2
  store i32 %54, ptr %52, align 4
  br label %proto_item_set_generated.exit43

proto_item_set_generated.exit43:                  ; preds = %47, %48, %51
  %55 = getelementptr inbounds nuw i8, ptr %1, i64 408
  %56 = load ptr, ptr %55, align 8
  %57 = load i32, ptr @proto_rtps, align 4
  %58 = tail call ptr @p_get_proto_data(ptr noundef %56, ptr noundef %1, i32 noundef %57, i32 noundef 3)
  %.not36 = icmp eq ptr %58, null
  br i1 %.not36, label %rtps_util_get_topic_info.exit.thread, label %59

59:                                               ; preds = %proto_item_set_generated.exit43
  %60 = getelementptr inbounds nuw i8, ptr %58, i64 8
  %61 = load ptr, ptr %60, align 8
  %62 = icmp eq ptr %61, null
  br i1 %62, label %63, label %rtps_util_get_topic_info.exit.thread

63:                                               ; preds = %59
  %64 = load ptr, ptr %55, align 8
  %65 = tail call noalias ptr @wmem_strdup(ptr noundef %64, ptr noundef nonnull %19)
  store ptr %65, ptr %60, align 8
  br label %rtps_util_get_topic_info.exit.thread

rtps_util_get_topic_info.exit.thread:             ; preds = %12, %rtps_util_get_topic_info.exit, %proto_item_set_generated.exit43, %59, %63, %5
  ret void
}